target datalayout = "e-m:e-p270:32:32-p271:32:32-p272:64:64-i64:64-i128:128-f80:128-n8:16:32:64-S128"
target triple = "x86_64-pc-linux-gnu"

%struct.darktable_t = type { %struct.dt_codepath_t, i32, i32, ptr, ptr, ptr, ptr, ptr, ptr, ptr, ptr, ptr, ptr, ptr, ptr, ptr, ptr, ptr, ptr, ptr, ptr, ptr, ptr, ptr, ptr, ptr, ptr, ptr, ptr, ptr, [64 x %struct.dt_pthread_mutex_t], %struct.dt_pthread_mutex_t, %struct.dt_pthread_mutex_t, %struct.dt_pthread_mutex_t, %struct.dt_pthread_mutex_t, %struct.dt_pthread_mutex_t, ptr, ptr, ptr, ptr, ptr, ptr, ptr, ptr, ptr, ptr, ptr, ptr, ptr, %struct.dt_lua_state_t, ptr, double, ptr, i32, [47 x i32], i32, i32, ptr, ptr, %struct.dt_sys_resources_t, %struct.dt_backthumb_t, %struct.dt_gimp_t }
%struct.dt_codepath_t = type { i8, [3 x i8] }
%struct.dt_pthread_mutex_t = type { %union.pthread_mutex_t }
%union.pthread_mutex_t = type { %struct.__pthread_mutex_s }
%struct.__pthread_mutex_s = type { i32, i32, i32, i32, i32, i16, i16, %struct.__pthread_internal_list }
%struct.__pthread_internal_list = type { ptr, ptr }
%struct.dt_lua_state_t = type { i32 }
%struct.dt_sys_resources_t = type { i64, i64, ptr, ptr, i32 }
%struct.dt_backthumb_t = type { double, double, i32, i32, i32, i32 }
%struct.dt_gimp_t = type { i32, ptr, ptr, i32, i32 }

@darktable = external global %struct.darktable_t, align 8
@.str = private unnamed_addr constant [62 x i8] c"[dt_image_distance_transform] called with unsupported mode %i\00", align 1

; Function Attrs: inlinehint nounwind uwtable
define internal ptr @dt_alloc_align_int(i64 noundef %0) #3 {
  %2 = alloca i64, align 8
  store i64 %0, ptr %2, align 8, !tbaa !11
  %3 = load i64, ptr %2, align 8, !tbaa !11
  %4 = mul i64 %3, 4
  %5 = call ptr @dt_alloc_aligned(i64 noundef %4)
  call void @llvm.assume(i1 true) [ "align"(ptr %5, i64 64) ]
  ret ptr %5
}

; Function Attrs: inlinehint nounwind uwtable
define internal ptr @dt_alloc_align_float(i64 noundef %0) #3 {
  %2 = alloca i64, align 8
  store i64 %0, ptr %2, align 8, !tbaa !11
  %3 = load i64, ptr %2, align 8, !tbaa !11
  %4 = mul i64 %3, 4
  %5 = call ptr @dt_alloc_aligned(i64 noundef %4)
  call void @llvm.assume(i1 true) [ "align"(ptr %5, i64 64) ]
  ret ptr %5
}

; Function Attrs: nounwind uwtable
define float @dt_image_distance_transform(ptr noundef %0, ptr noundef %1, i64 noundef %2, i64 noundef %3, float noundef %4, i32 noundef %5) #0 {
  %7 = alloca float, align 4
  %8 = alloca ptr, align 8
  %9 = alloca ptr, align 8
  %10 = alloca i64, align 8
  %11 = alloca i64, align 8
  %12 = alloca float, align 4
  %13 = alloca i32, align 4
  %14 = alloca i64, align 8
  %15 = alloca i64, align 8
  %16 = alloca float, align 4
  %17 = alloca ptr, align 8
  %18 = alloca ptr, align 8
  %19 = alloca ptr, align 8
  %20 = alloca ptr, align 8
  %21 = alloca i64, align 8
  %22 = alloca i32, align 4
  %23 = alloca i64, align 8
  %24 = alloca i64, align 8
  %25 = alloca i64, align 8
  %26 = alloca i64, align 8
  %27 = alloca float, align 4
  store ptr %0, ptr %8, align 8, !tbaa !6
  store ptr %1, ptr %9, align 8, !tbaa !6
  store i64 %2, ptr %10, align 8, !tbaa !11
  store i64 %3, ptr %11, align 8, !tbaa !11
  store float %4, ptr %12, align 4, !tbaa !13
  store i32 %5, ptr %13, align 4, !tbaa !15
  %28 = load i32, ptr %13, align 4, !tbaa !15
  switch i32 %28, label %53 [
    i32 0, label %66
    i32 1, label %29
  ]

29:                                               ; preds = %6
  call void @llvm.lifetime.start.p0(i64 8, ptr %14) #7
  store i64 0, ptr %14, align 8, !tbaa !11
  br label %30

30:                                               ; preds = %49, %29
  %31 = load i64, ptr %14, align 8, !tbaa !11
  %32 = load i64, ptr %10, align 8, !tbaa !11
  %33 = load i64, ptr %11, align 8, !tbaa !11
  %34 = mul i64 %32, %33
  %35 = icmp ult i64 %31, %34
  br i1 %35, label %37, label %36

36:                                               ; preds = %30
  call void @llvm.lifetime.end.p0(i64 8, ptr %14) #7
  br label %52

37:                                               ; preds = %30
  %38 = load ptr, ptr %8, align 8, !tbaa !6
  %39 = load i64, ptr %14, align 8, !tbaa !11
  %40 = getelementptr inbounds nuw float, ptr %38, i64 %39
  %41 = load float, ptr %40, align 4, !tbaa !13
  %42 = load float, ptr %12, align 4, !tbaa !13
  %43 = fcmp reassoc nsz arcp contract afn olt float %41, %42
  %44 = select reassoc nsz arcp contract afn i1 %43, double 0.000000e+00, double 1.000000e+20
  %45 = fptrunc reassoc nsz arcp contract afn double %44 to float
  %46 = load ptr, ptr %9, align 8, !tbaa !6
  %47 = load i64, ptr %14, align 8, !tbaa !11
  %48 = getelementptr inbounds nuw float, ptr %46, i64 %47
  store float %45, ptr %48, align 4, !tbaa !13
  br label %49

49:                                               ; preds = %37
  %50 = load i64, ptr %14, align 8, !tbaa !11
  %51 = add i64 %50, 1
  store i64 %51, ptr %14, align 8, !tbaa !11
  br label %30

52:                                               ; preds = %36
  br label %66

53:                                               ; preds = %6
  %54 = load ptr, ptr %9, align 8, !tbaa !6
  %55 = load i64, ptr %10, align 8, !tbaa !11
  %56 = load i64, ptr %11, align 8, !tbaa !11
  call void @dt_iop_image_fill(ptr noundef %54, float noundef 0.000000e+00, i64 noundef %55, i64 noundef %56, i64 noundef 1)
  br label %57

57:                                               ; preds = %53
  %58 = load i32, ptr getelementptr inbounds nuw (%struct.darktable_t, ptr @darktable, i32 0, i32 2), align 8, !tbaa !17
  %59 = xor i32 %58, -1
  %60 = and i32 0, %59
  %61 = icmp ne i32 %60, 0
  br i1 %61, label %64, label %62

62:                                               ; preds = %57
  %63 = load i32, ptr %13, align 4, !tbaa !15
  call void (ptr, ...) @dt_print_ext(ptr noundef @.str, i32 noundef %63)
  br label %64

64:                                               ; preds = %62, %57
  br label %65

65:                                               ; preds = %64
  store float 0.000000e+00, ptr %7, align 4
  br label %194

66:                                               ; preds = %52, %6
  call void @llvm.lifetime.start.p0(i64 8, ptr %15) #7
  %67 = load i64, ptr %10, align 8, !tbaa !11
  %68 = load i64, ptr %11, align 8, !tbaa !11
  %69 = icmp ugt i64 %67, %68
  br i1 %69, label %70, label %72

70:                                               ; preds = %66
  %71 = load i64, ptr %10, align 8, !tbaa !11
  br label %74

72:                                               ; preds = %66
  %73 = load i64, ptr %11, align 8, !tbaa !11
  br label %74

74:                                               ; preds = %72, %70
  %75 = phi i64 [ %71, %70 ], [ %73, %72 ]
  store i64 %75, ptr %15, align 8, !tbaa !11
  call void @llvm.lifetime.start.p0(i64 4, ptr %16) #7
  store float 0.000000e+00, ptr %16, align 4, !tbaa !13
  call void @llvm.lifetime.start.p0(i64 8, ptr %17) #7
  %76 = load i64, ptr %15, align 8, !tbaa !11
  %77 = call ptr @dt_alloc_align_float(i64 noundef %76)
  store ptr %77, ptr %17, align 8, !tbaa !6
  call void @llvm.lifetime.start.p0(i64 8, ptr %18) #7
  %78 = load i64, ptr %15, align 8, !tbaa !11
  %79 = add i64 %78, 1
  %80 = call ptr @dt_alloc_align_float(i64 noundef %79)
  store ptr %80, ptr %18, align 8, !tbaa !6
  call void @llvm.lifetime.start.p0(i64 8, ptr %19) #7
  %81 = load i64, ptr %15, align 8, !tbaa !11
  %82 = call ptr @dt_alloc_align_float(i64 noundef %81)
  store ptr %82, ptr %19, align 8, !tbaa !6
  call void @llvm.lifetime.start.p0(i64 8, ptr %20) #7
  %83 = load i64, ptr %15, align 8, !tbaa !11
  %84 = call ptr @dt_alloc_align_int(i64 noundef %83)
  store ptr %84, ptr %20, align 8, !tbaa !54
  call void @llvm.lifetime.start.p0(i64 8, ptr %21) #7
  store i64 0, ptr %21, align 8, !tbaa !11
  br label %85

85:                                               ; preds = %139, %74
  %86 = load i64, ptr %21, align 8, !tbaa !11
  %87 = load i64, ptr %10, align 8, !tbaa !11
  %88 = icmp ult i64 %86, %87
  br i1 %88, label %90, label %89

89:                                               ; preds = %85
  store i32 8, ptr %22, align 4
  call void @llvm.lifetime.end.p0(i64 8, ptr %21) #7
  br label %142

90:                                               ; preds = %85
  call void @llvm.lifetime.start.p0(i64 8, ptr %23) #7
  store i64 0, ptr %23, align 8, !tbaa !11
  br label %91

91:                                               ; preds = %108, %90
  %92 = load i64, ptr %23, align 8, !tbaa !11
  %93 = load i64, ptr %11, align 8, !tbaa !11
  %94 = icmp ult i64 %92, %93
  br i1 %94, label %96, label %95

95:                                               ; preds = %91
  store i32 11, ptr %22, align 4
  call void @llvm.lifetime.end.p0(i64 8, ptr %23) #7
  br label %111

96:                                               ; preds = %91
  %97 = load ptr, ptr %9, align 8, !tbaa !6
  %98 = load i64, ptr %23, align 8, !tbaa !11
  %99 = load i64, ptr %10, align 8, !tbaa !11
  %100 = mul i64 %98, %99
  %101 = load i64, ptr %21, align 8, !tbaa !11
  %102 = add i64 %100, %101
  %103 = getelementptr inbounds nuw float, ptr %97, i64 %102
  %104 = load float, ptr %103, align 4, !tbaa !13
  %105 = load ptr, ptr %17, align 8, !tbaa !6
  %106 = load i64, ptr %23, align 8, !tbaa !11
  %107 = getelementptr inbounds nuw float, ptr %105, i64 %106
  store float %104, ptr %107, align 4, !tbaa !13
  br label %108

108:                                              ; preds = %96
  %109 = load i64, ptr %23, align 8, !tbaa !11
  %110 = add i64 %109, 1
  store i64 %110, ptr %23, align 8, !tbaa !11
  br label %91

111:                                              ; preds = %95
  %112 = load ptr, ptr %17, align 8, !tbaa !6
  %113 = load ptr, ptr %18, align 8, !tbaa !6
  %114 = load ptr, ptr %19, align 8, !tbaa !6
  %115 = load ptr, ptr %20, align 8, !tbaa !54
  %116 = load i64, ptr %11, align 8, !tbaa !11
  %117 = trunc i64 %116 to i32
  call void @_image_distance_transform(ptr noundef %112, ptr noundef %113, ptr noundef %114, ptr noundef %115, i32 noundef %117)
  call void @llvm.lifetime.start.p0(i64 8, ptr %24) #7
  store i64 0, ptr %24, align 8, !tbaa !11
  br label %118

118:                                              ; preds = %135, %111
  %119 = load i64, ptr %24, align 8, !tbaa !11
  %120 = load i64, ptr %11, align 8, !tbaa !11
  %121 = icmp ult i64 %119, %120
  br i1 %121, label %123, label %122

122:                                              ; preds = %118
  store i32 14, ptr %22, align 4
  call void @llvm.lifetime.end.p0(i64 8, ptr %24) #7
  br label %138

123:                                              ; preds = %118
  %124 = load ptr, ptr %19, align 8, !tbaa !6
  %125 = load i64, ptr %24, align 8, !tbaa !11
  %126 = getelementptr inbounds nuw float, ptr %124, i64 %125
  %127 = load float, ptr %126, align 4, !tbaa !13
  %128 = load ptr, ptr %9, align 8, !tbaa !6
  %129 = load i64, ptr %24, align 8, !tbaa !11
  %130 = load i64, ptr %10, align 8, !tbaa !11
  %131 = mul i64 %129, %130
  %132 = load i64, ptr %21, align 8, !tbaa !11
  %133 = add i64 %131, %132
  %134 = getelementptr inbounds nuw float, ptr %128, i64 %133
  store float %127, ptr %134, align 4, !tbaa !13
  br label %135

135:                                              ; preds = %123
  %136 = load i64, ptr %24, align 8, !tbaa !11
  %137 = add i64 %136, 1
  store i64 %137, ptr %24, align 8, !tbaa !11
  br label %118

138:                                              ; preds = %122
  br label %139

139:                                              ; preds = %138
  %140 = load i64, ptr %21, align 8, !tbaa !11
  %141 = add i64 %140, 1
  store i64 %141, ptr %21, align 8, !tbaa !11
  br label %85

142:                                              ; preds = %89
  call void @llvm.lifetime.start.p0(i64 8, ptr %25) #7
  store i64 0, ptr %25, align 8, !tbaa !11
  br label %143

143:                                              ; preds = %185, %142
  %144 = load i64, ptr %25, align 8, !tbaa !11
  %145 = load i64, ptr %11, align 8, !tbaa !11
  %146 = icmp ult i64 %144, %145
  br i1 %146, label %148, label %147

147:                                              ; preds = %143
  store i32 17, ptr %22, align 4
  call void @llvm.lifetime.end.p0(i64 8, ptr %25) #7
  br label %188

148:                                              ; preds = %143
  %149 = load ptr, ptr %9, align 8, !tbaa !6
  %150 = load i64, ptr %25, align 8, !tbaa !11
  %151 = load i64, ptr %10, align 8, !tbaa !11
  %152 = mul i64 %150, %151
  %153 = getelementptr inbounds nuw float, ptr %149, i64 %152
  %154 = load ptr, ptr %18, align 8, !tbaa !6
  %155 = load ptr, ptr %19, align 8, !tbaa !6
  %156 = load ptr, ptr %20, align 8, !tbaa !54
  %157 = load i64, ptr %10, align 8, !tbaa !11
  %158 = trunc i64 %157 to i32
  call void @_image_distance_transform(ptr noundef %153, ptr noundef %154, ptr noundef %155, ptr noundef %156, i32 noundef %158)
  call void @llvm.lifetime.start.p0(i64 8, ptr %26) #7
  store i64 0, ptr %26, align 8, !tbaa !11
  br label %159

159:                                              ; preds = %181, %148
  %160 = load i64, ptr %26, align 8, !tbaa !11
  %161 = load i64, ptr %10, align 8, !tbaa !11
  %162 = icmp ult i64 %160, %161
  br i1 %162, label %164, label %163

163:                                              ; preds = %159
  store i32 20, ptr %22, align 4
  call void @llvm.lifetime.end.p0(i64 8, ptr %26) #7
  br label %184

164:                                              ; preds = %159
  call void @llvm.lifetime.start.p0(i64 4, ptr %27) #7
  %165 = load ptr, ptr %19, align 8, !tbaa !6
  %166 = load i64, ptr %26, align 8, !tbaa !11
  %167 = getelementptr inbounds nuw float, ptr %165, i64 %166
  %168 = load float, ptr %167, align 4, !tbaa !13
  %169 = call reassoc nsz arcp contract afn float @llvm.sqrt.f32(float %168)
  store float %169, ptr %27, align 4, !tbaa !13
  %170 = load float, ptr %27, align 4, !tbaa !13
  %171 = load ptr, ptr %9, align 8, !tbaa !6
  %172 = load i64, ptr %25, align 8, !tbaa !11
  %173 = load i64, ptr %10, align 8, !tbaa !11
  %174 = mul i64 %172, %173
  %175 = load i64, ptr %26, align 8, !tbaa !11
  %176 = add i64 %174, %175
  %177 = getelementptr inbounds nuw float, ptr %171, i64 %176
  store float %170, ptr %177, align 4, !tbaa !13
  %178 = load float, ptr %16, align 4, !tbaa !13
  %179 = load float, ptr %27, align 4, !tbaa !13
  %180 = call reassoc nsz arcp contract afn float @llvm.maxnum.f32(float %178, float %179)
  store float %180, ptr %16, align 4, !tbaa !13
  call void @llvm.lifetime.end.p0(i64 4, ptr %27) #7
  br label %181

181:                                              ; preds = %164
  %182 = load i64, ptr %26, align 8, !tbaa !11
  %183 = add i64 %182, 1
  store i64 %183, ptr %26, align 8, !tbaa !11
  br label %159

184:                                              ; preds = %163
  br label %185

185:                                              ; preds = %184
  %186 = load i64, ptr %25, align 8, !tbaa !11
  %187 = add i64 %186, 1
  store i64 %187, ptr %25, align 8, !tbaa !11
  br label %143

188:                                              ; preds = %147
  %189 = load ptr, ptr %17, align 8, !tbaa !6
  call void @free(ptr noundef %189) #7
  %190 = load ptr, ptr %19, align 8, !tbaa !6
  call void @free(ptr noundef %190) #7
  %191 = load ptr, ptr %18, align 8, !tbaa !6
  call void @free(ptr noundef %191) #7
  %192 = load ptr, ptr %20, align 8, !tbaa !54
  call void @free(ptr noundef %192) #7
  call void @llvm.lifetime.end.p0(i64 8, ptr %20) #7
  call void @llvm.lifetime.end.p0(i64 8, ptr %19) #7
  call void @llvm.lifetime.end.p0(i64 8, ptr %18) #7
  call void @llvm.lifetime.end.p0(i64 8, ptr %17) #7
  %193 = load float, ptr %16, align 4, !tbaa !13
  store float %193, ptr %7, align 4
  store i32 1, ptr %22, align 4
  call void @llvm.lifetime.end.p0(i64 4, ptr %16) #7
  call void @llvm.lifetime.end.p0(i64 8, ptr %15) #7
  br label %194

194:                                              ; preds = %188, %65
  %195 = load float, ptr %7, align 4
  ret float %195
}