; Function Attrs: nounwind uwtable
define float @dt_image_distance_transform(ptr noundef readonly captures(none) %0, ptr noundef %1, i64 noundef %2, i64 noundef %3, float noundef %4, i32 noundef %5) local_unnamed_addr #0 {
  switch i32 %5, label %14 [
    i32 0, label %.loopexit
    i32 1, label %.preheader86
  ]

.preheader86:                                     ; preds = %6
  %7 = mul i64 %3, %2
  %.not = icmp eq i64 %7, 0
  br i1 %.not, label %.loopexit, label %.lr.ph

.lr.ph:                                           ; preds = %.preheader86, %.lr.ph
  %.08087 = phi i64 [ %13, %.lr.ph ], [ 0, %.preheader86 ]
  %8 = getelementptr inbounds nuw float, ptr %0, i64 %.08087
  %9 = load float, ptr %8, align 4, !tbaa !6
  %10 = fcmp reassoc nsz arcp contract afn olt float %9, %4
  %11 = select i1 %10, float 0.000000e+00, float 0x4415AF1D80000000
  %12 = getelementptr inbounds nuw float, ptr %1, i64 %.08087
  store float %11, ptr %12, align 4, !tbaa !6
  %13 = add nuw i64 %.08087, 1
  %exitcond.not = icmp eq i64 %13, %7
  br i1 %exitcond.not, label %.loopexit, label %.lr.ph

14:                                               ; preds = %6
  tail call void @dt_iop_image_fill(ptr noundef %1, float noundef 0.000000e+00, i64 noundef %2, i64 noundef %3, i64 noundef 1) #7
  tail call void (ptr, ...) @dt_print_ext(ptr noundef nonnull @.str, i32 noundef %5) #7
  br label %47

.loopexit:                                        ; preds = %.lr.ph, %.preheader86, %6
  %15 = tail call i64 @llvm.umax.i64(i64 %2, i64 %3)
  %16 = shl i64 %15, 2
  %17 = tail call ptr @dt_alloc_aligned(i64 noundef %16) #7
  call void @llvm.assume(i1 true) [ "align"(ptr %17, i64 64) ]
  %18 = add i64 %16, 4
  %19 = tail call ptr @dt_alloc_aligned(i64 noundef %18) #7
  call void @llvm.assume(i1 true) [ "align"(ptr %19, i64 64) ]
  %20 = tail call ptr @dt_alloc_aligned(i64 noundef %16) #7
  call void @llvm.assume(i1 true) [ "align"(ptr %20, i64 64) ]
  %21 = tail call ptr @dt_alloc_aligned(i64 noundef %16) #7
  call void @llvm.assume(i1 true) [ "align"(ptr %21, i64 64) ]
  %.not113 = icmp eq i64 %2, 0
  %.not115128 = icmp eq i64 %3, 0
  br i1 %.not113, label %.preheader.thread127, label %.preheader85.lr.ph

.preheader85.lr.ph:                               ; preds = %.loopexit
  %22 = trunc i64 %3 to i32
  br i1 %.not115128, label %.preheader85, label %.preheader85.us.us

.preheader85.us.us:                               ; preds = %.preheader85.lr.ph, %._crit_edge95.us.us
  %.07996.us.us = phi i64 [ %33, %._crit_edge95.us.us ], [ 0, %.preheader85.lr.ph ]
  %invariant.gep.us.us = getelementptr float, ptr %1, i64 %.07996.us.us
  br label %28

23:                                               ; preds = %._crit_edge.us.us, %23
  %.07792.us.us = phi i64 [ 0, %._crit_edge.us.us ], [ %27, %23 ]
  %24 = getelementptr inbounds nuw float, ptr %20, i64 %.07792.us.us
  %25 = load float, ptr %24, align 4, !tbaa !6
  %26 = mul i64 %.07792.us.us, %2
  %gep91.us.us = getelementptr float, ptr %invariant.gep.us.us, i64 %26
  store float %25, ptr %gep91.us.us, align 4, !tbaa !6
  %27 = add nuw i64 %.07792.us.us, 1
  %exitcond120.not = icmp eq i64 %27, %3
  br i1 %exitcond120.not, label %._crit_edge95.us.us, label %23

28:                                               ; preds = %28, %.preheader85.us.us
  %.07888.us.us = phi i64 [ 0, %.preheader85.us.us ], [ %32, %28 ]
  %29 = mul i64 %.07888.us.us, %2
  %gep.us.us = getelementptr float, ptr %invariant.gep.us.us, i64 %29
  %30 = load float, ptr %gep.us.us, align 4, !tbaa !6
  %31 = getelementptr inbounds nuw float, ptr %17, i64 %.07888.us.us
  store float %30, ptr %31, align 4, !tbaa !6
  %32 = add nuw i64 %.07888.us.us, 1
  %exitcond119.not = icmp eq i64 %32, %3
  br i1 %exitcond119.not, label %._crit_edge.us.us, label %28

._crit_edge.us.us:                                ; preds = %28
  tail call fastcc void @_image_distance_transform(ptr noundef nonnull %17, ptr noundef %19, ptr noundef %20, ptr noundef %21, i32 noundef %22)
  br label %23

._crit_edge95.us.us:                              ; preds = %23
  %33 = add nuw i64 %.07996.us.us, 1
  %exitcond121.not = icmp eq i64 %33, %2
  br i1 %exitcond121.not, label %.lr.ph106.us.preheader, label %.preheader85.us.us

.preheader85:                                     ; preds = %.preheader85.lr.ph, %.preheader85
  %.07996 = phi i64 [ %34, %.preheader85 ], [ 0, %.preheader85.lr.ph ]
  tail call fastcc void @_image_distance_transform(ptr noundef %17, ptr noundef %19, ptr noundef %20, ptr noundef %21, i32 noundef %22)
  %34 = add nuw i64 %.07996, 1
  %exitcond122.not = icmp eq i64 %34, %2
  br i1 %exitcond122.not, label %._crit_edge110, label %.preheader85

.preheader.thread127:                             ; preds = %.loopexit
  br i1 %.not115128, label %._crit_edge110, label %.lr.ph109.split

.lr.ph106.us.preheader:                           ; preds = %._crit_edge95.us.us
  %35 = trunc i64 %2 to i32
  br label %.lr.ph106.us

.lr.ph106.us:                                     ; preds = %.lr.ph106.us.preheader, %._crit_edge.us112
  %.076108.us = phi i64 [ %45, %._crit_edge.us112 ], [ 0, %.lr.ph106.us.preheader ]
  %.081107.us = phi float [ %43, %._crit_edge.us112 ], [ 0.000000e+00, %.lr.ph106.us.preheader ]
  %36 = mul i64 %.076108.us, %2
  %37 = getelementptr inbounds nuw float, ptr %1, i64 %36
  tail call fastcc void @_image_distance_transform(ptr noundef %37, ptr noundef %19, ptr noundef %20, ptr noundef %21, i32 noundef %35)
  br label %38

38:                                               ; preds = %.lr.ph106.us, %38
  %.075105.us = phi i64 [ 0, %.lr.ph106.us ], [ %44, %38 ]
  %.1104.us = phi float [ %.081107.us, %.lr.ph106.us ], [ %43, %38 ]
  %39 = getelementptr inbounds nuw float, ptr %20, i64 %.075105.us
  %40 = load float, ptr %39, align 4, !tbaa !6
  %41 = tail call reassoc nsz arcp contract afn float @llvm.sqrt.f32(float %40)
  %42 = getelementptr float, ptr %37, i64 %.075105.us
  store float %41, ptr %42, align 4, !tbaa !6
  %43 = tail call reassoc nsz arcp contract afn float @llvm.maxnum.f32(float %.1104.us, float %41)
  %44 = add nuw i64 %.075105.us, 1
  %exitcond123.not = icmp eq i64 %44, %2
  br i1 %exitcond123.not, label %._crit_edge.us112, label %38

._crit_edge.us112:                                ; preds = %38
  %45 = add nuw i64 %.076108.us, 1
  %exitcond124.not = icmp eq i64 %45, %3
  br i1 %exitcond124.not, label %._crit_edge110, label %.lr.ph106.us

._crit_edge110:                                   ; preds = %._crit_edge.us112, %.preheader85, %.lr.ph109.split, %.preheader.thread127
  %.081.lcssa = phi float [ 0.000000e+00, %.preheader.thread127 ], [ 0.000000e+00, %.lr.ph109.split ], [ 0.000000e+00, %.preheader85 ], [ %43, %._crit_edge.us112 ]
  tail call void @free(ptr noundef %17) #7
  tail call void @free(ptr noundef %20) #7
  tail call void @free(ptr noundef %19) #7
  tail call void @free(ptr noundef %21) #7
  br label %47

.lr.ph109.split:                                  ; preds = %.preheader.thread127, %.lr.ph109.split
  %.076108 = phi i64 [ %46, %.lr.ph109.split ], [ 0, %.preheader.thread127 ]
  tail call fastcc void @_image_distance_transform(ptr noundef %1, ptr noundef %19, ptr noundef %20, ptr noundef %21, i32 noundef 0)
  %46 = add nuw i64 %.076108, 1
  %exitcond125.not = icmp eq i64 %46, %3
  br i1 %exitcond125.not, label %._crit_edge110, label %.lr.ph109.split

47:                                               ; preds = %._crit_edge110, %14
  %.0 = phi nsz float [ 0.000000e+00, %14 ], [ %.081.lcssa, %._crit_edge110 ]
  ret float %.0
}